target datalayout = "e-m:e-p270:32:32-p271:32:32-p272:64:64-i64:64-i128:128-f80:128-n8:16:32:64-S128"
target triple = "x86_64-pc-linux-gnu"

%struct.rb_global_entry = type { ptr, i64, i8 }
%struct.rb_global_variable = type { i32, i32, ptr, ptr, ptr, ptr, ptr, ptr }

; Function Attrs: nounwind sspstrong uwtable
define hidden i64 @rb_gvar_get(i64 noundef %0) #0 {
  %2 = alloca i64, align 8
  %3 = alloca ptr, align 8
  %4 = alloca ptr, align 8
  store i64 %0, ptr %2, align 8, !tbaa !14
  call void @llvm.lifetime.start.p0(i64 8, ptr %3) #30
  %5 = load i64, ptr %2, align 8, !tbaa !14
  %6 = call ptr @rb_global_entry(i64 noundef %5)
  store ptr %6, ptr %3, align 8, !tbaa !52
  call void @llvm.lifetime.start.p0(i64 8, ptr %4) #30
  %7 = load ptr, ptr %3, align 8, !tbaa !52
  %8 = getelementptr inbounds nuw %struct.rb_global_entry, ptr %7, i32 0, i32 0
  %9 = load ptr, ptr %8, align 8, !tbaa !54
  store ptr %9, ptr %4, align 8, !tbaa !62
  %10 = load ptr, ptr %4, align 8, !tbaa !62
  %11 = getelementptr inbounds nuw %struct.rb_global_variable, ptr %10, i32 0, i32 3
  %12 = load ptr, ptr %11, align 8, !tbaa !63
  %13 = load ptr, ptr %3, align 8, !tbaa !52
  %14 = getelementptr inbounds nuw %struct.rb_global_entry, ptr %13, i32 0, i32 1
  %15 = load i64, ptr %14, align 8, !tbaa !68
  %16 = load ptr, ptr %4, align 8, !tbaa !62
  %17 = getelementptr inbounds nuw %struct.rb_global_variable, ptr %16, i32 0, i32 2
  %18 = load ptr, ptr %17, align 8, !tbaa !67
  %19 = call i64 %12(i64 noundef %15, ptr noundef %18)
  call void @llvm.lifetime.end.p0(i64 8, ptr %4) #30
  call void @llvm.lifetime.end.p0(i64 8, ptr %3) #30
  ret i64 %19
}