; Function Attrs: nounwind sspstrong uwtable
define hidden i64 @rb_gvar_get(i64 noundef %0) local_unnamed_addr #0 {
  %2 = tail call fastcc ptr @rb_global_entry(i64 noundef %0)
  %3 = load ptr, ptr %2, align 8, !tbaa !58
  %4 = getelementptr inbounds nuw i8, ptr %3, i64 16
  %5 = load ptr, ptr %4, align 8, !tbaa !73
  %6 = getelementptr inbounds nuw i8, ptr %2, i64 8
  %7 = load i64, ptr %6, align 8, !tbaa !78
  %8 = getelementptr inbounds nuw i8, ptr %3, i64 8
  %9 = load ptr, ptr %8, align 8, !tbaa !77
  %10 = tail call i64 %5(i64 noundef %7, ptr noundef %9) #27
  ret i64 %10
}